; Function Attrs: nounwind uwtable
define range(i32 -50, 1) i32 @pmix20_bfrop_unpack_ptr(ptr noundef readnone captures(none) %0, ptr noundef %1, ptr noundef readnone captures(none) %2, ptr noundef readnone captures(none) %3, i16 noundef zeroext %4) local_unnamed_addr #0 {
  %6 = load i32, ptr getelementptr inbounds nuw (i8, ptr @pmix_bfrops_base_framework, i64 76), align 4, !tbaa !7
  %or.cond.i = icmp ult i32 %6, 64
  br i1 %or.cond.i, label %7, label %13

7:                                                ; preds = %5
  %8 = zext nneg i32 %6 to i64
  %9 = getelementptr inbounds nuw [0 x %struct.pmix_output_desc_t], ptr @pmix_output_info, i64 0, i64 %8, i32 2
  %10 = load i32, ptr %9, align 4, !tbaa !19
  %11 = icmp sgt i32 %10, 19
  br i1 %11, label %12, label %13

12:                                               ; preds = %7
  tail call void (i32, ptr, ...) @pmix_output(i32 noundef %6, ptr noundef nonnull @.str.5, i32 noundef 1) #10
  br label %13

13:                                               ; preds = %12, %7, %5
  %14 = tail call zeroext i1 @pmix_bfrop_too_small(ptr noundef %1, i64 noundef 1) #10
  br i1 %14, label %pmix20_bfrop_unpack_byte.exit, label %15

15:                                               ; preds = %13
  %16 = getelementptr inbounds nuw i8, ptr %1, i64 144
  %17 = load ptr, ptr %16, align 8, !tbaa !34
  %18 = getelementptr inbounds nuw i8, ptr %17, i64 1
  store ptr %18, ptr %16, align 8, !tbaa !34
  br label %pmix20_bfrop_unpack_byte.exit

pmix20_bfrop_unpack_byte.exit:                    ; preds = %13, %15
  %.0.i = phi i32 [ 0, %15 ], [ -50, %13 ]
  ret i32 %.0.i
}